; ModuleID = '46/949.c'
source_filename = "46/949.c"
target datalayout = "e-m:e-p270:32:32-p271:32:32-p272:64:64-i64:64-f80:128-n8:16:32:64-S128"
target triple = "x86_64-pc-linux-gnu"

@.str = private unnamed_addr constant [3 x i8] c"%d\00", align 1
@.str.1 = private unnamed_addr constant [4 x i8] c"%d\0A\00", align 1

; Function Attrs: noinline nounwind uwtable
define dso_local i32 @main(i32 %0, i8** %1) #0 {
  %3 = alloca i32, align 4
  %4 = alloca i32, align 4
  %5 = alloca i8**, align 8
  %6 = alloca [100 x [100 x i32]], align 16
  %7 = alloca i32, align 4
  %8 = alloca i32, align 4
  %9 = alloca i32, align 4
  %10 = alloca i32, align 4
  %11 = alloca i32, align 4
  %12 = alloca i32, align 4
  %13 = alloca i32, align 4
  %14 = alloca i32, align 4
  %15 = alloca i32, align 4
  %16 = alloca float, align 4
  store i32 0, i32* %3, align 4
  store i32 %0, i32* %4, align 4
  store i8** %1, i8*** %5, align 8
  store i32 0, i32* %12, align 4
  store i32 0, i32* %15, align 4
  %17 = call i32 (i8*, ...) @__isoc99_scanf(i8* getelementptr inbounds ([3 x i8], [3 x i8]* @.str, i64 0, i64 0), i32* %8)
  %18 = call i32 (i8*, ...) @__isoc99_scanf(i8* getelementptr inbounds ([3 x i8], [3 x i8]* @.str, i64 0, i64 0), i32* %9)
  store i32 0, i32* %10, align 4
  br label %19

19:                                               ; preds = %40, %2
  %20 = load i32, i32* %10, align 4
  %21 = load i32, i32* %8, align 4
  %22 = icmp slt i32 %20, %21
  br i1 %22, label %23, label %43

23:                                               ; preds = %19
  store i32 0, i32* %11, align 4
  br label %24

24:                                               ; preds = %36, %23
  %25 = load i32, i32* %11, align 4
  %26 = load i32, i32* %9, align 4
  %27 = icmp slt i32 %25, %26
  br i1 %27, label %28, label %39

28:                                               ; preds = %24
  %29 = load i32, i32* %10, align 4
  %30 = sext i32 %29 to i64
  %31 = getelementptr inbounds [100 x [100 x i32]], [100 x [100 x i32]]* %6, i64 0, i64 %30
  %32 = load i32, i32* %11, align 4
  %33 = sext i32 %32 to i64
  %34 = getelementptr inbounds [100 x i32], [100 x i32]* %31, i64 0, i64 %33
  %35 = call i32 (i8*, ...) @__isoc99_scanf(i8* getelementptr inbounds ([3 x i8], [3 x i8]* @.str, i64 0, i64 0), i32* %34)
  br label %36

36:                                               ; preds = %28
  %37 = load i32, i32* %11, align 4
  %38 = add nsw i32 %37, 1
  store i32 %38, i32* %11, align 4
  br label %24

39:                                               ; preds = %24
  br label %40

40:                                               ; preds = %39
  %41 = load i32, i32* %10, align 4
  %42 = add nsw i32 %41, 1
  store i32 %42, i32* %10, align 4
  br label %19

43:                                               ; preds = %19
  %44 = load i32, i32* %8, align 4
  %45 = load i32, i32* %9, align 4
  %46 = icmp sgt i32 %44, %45
  br i1 %46, label %47, label %49

47:                                               ; preds = %43
  %48 = load i32, i32* %9, align 4
  store i32 %48, i32* %7, align 4
  br label %51

49:                                               ; preds = %43
  %50 = load i32, i32* %8, align 4
  store i32 %50, i32* %7, align 4
  br label %51

51:                                               ; preds = %49, %47
  %52 = load i32, i32* %7, align 4
  %53 = sitofp i32 %52 to float
  store float %53, float* %16, align 4
  br label %54

54:                                               ; preds = %186, %51
  %55 = load i32, i32* %12, align 4
  %56 = sitofp i32 %55 to float
  %57 = load float, float* %16, align 4
  %58 = fdiv float %57, 2.000000e+00
  %59 = fcmp olt float %56, %58
  br i1 %59, label %60, label %189

60:                                               ; preds = %54
  %61 = load i32, i32* %12, align 4
  store i32 %61, i32* %11, align 4
  br label %62

62:                                               ; preds = %86, %60
  %63 = load i32, i32* %11, align 4
  %64 = load i32, i32* %9, align 4
  %65 = load i32, i32* %12, align 4
  %66 = sub nsw i32 %64, %65
  %67 = icmp slt i32 %63, %66
  br i1 %67, label %68, label %89

68:                                               ; preds = %62
  %69 = load i32, i32* %15, align 4
  %70 = load i32, i32* %8, align 4
  %71 = load i32, i32* %9, align 4
  %72 = mul nsw i32 %70, %71
  %73 = icmp ne i32 %69, %72
  br i1 %73, label %74, label %85

74:                                               ; preds = %68
  %75 = load i32, i32* %12, align 4
  %76 = sext i32 %75 to i64
  %77 = getelementptr inbounds [100 x [100 x i32]], [100 x [100 x i32]]* %6, i64 0, i64 %76
  %78 = load i32, i32* %11, align 4
  %79 = sext i32 %78 to i64
  %80 = getelementptr inbounds [100 x i32], [100 x i32]* %77, i64 0, i64 %79
  %81 = load i32, i32* %80, align 4
  %82 = call i32 (i8*, ...) @printf(i8* getelementptr inbounds ([4 x i8], [4 x i8]* @.str.1, i64 0, i64 0), i32 %81)
  %83 = load i32, i32* %15, align 4
  %84 = add nsw i32 %83, 1
  store i32 %84, i32* %15, align 4
  br label %85

85:                                               ; preds = %74, %68
  br label %86

86:                                               ; preds = %85
  %87 = load i32, i32* %11, align 4
  %88 = add nsw i32 %87, 1
  store i32 %88, i32* %11, align 4
  br label %62

89:                                               ; preds = %62
  %90 = load i32, i32* %12, align 4
  %91 = add nsw i32 %90, 1
  store i32 %91, i32* %10, align 4
  br label %92

92:                                               ; preds = %120, %89
  %93 = load i32, i32* %10, align 4
  %94 = load i32, i32* %8, align 4
  %95 = sub nsw i32 %94, 1
  %96 = load i32, i32* %12, align 4
  %97 = sub nsw i32 %95, %96
  %98 = icmp slt i32 %93, %97
  br i1 %98, label %99, label %123

99:                                               ; preds = %92
  %100 = load i32, i32* %15, align 4
  %101 = load i32, i32* %8, align 4
  %102 = load i32, i32* %9, align 4
  %103 = mul nsw i32 %101, %102
  %104 = icmp ne i32 %100, %103
  br i1 %104, label %105, label %119

105:                                              ; preds = %99
  %106 = load i32, i32* %10, align 4
  %107 = sext i32 %106 to i64
  %108 = getelementptr inbounds [100 x [100 x i32]], [100 x [100 x i32]]* %6, i64 0, i64 %107
  %109 = load i32, i32* %9, align 4
  %110 = load i32, i32* %12, align 4
  %111 = sub nsw i32 %109, %110
  %112 = sub nsw i32 %111, 1
  %113 = sext i32 %112 to i64
  %114 = getelementptr inbounds [100 x i32], [100 x i32]* %108, i64 0, i64 %113
  %115 = load i32, i32* %114, align 4
  %116 = call i32 (i8*, ...) @printf(i8* getelementptr inbounds ([4 x i8], [4 x i8]* @.str.1, i64 0, i64 0), i32 %115)
  %117 = load i32, i32* %15, align 4
  %118 = add nsw i32 %117, 1
  store i32 %118, i32* %15, align 4
  br label %119

119:                                              ; preds = %105, %99
  br label %120

120:                                              ; preds = %119
  %121 = load i32, i32* %10, align 4
  %122 = add nsw i32 %121, 1
  store i32 %122, i32* %10, align 4
  br label %92

123:                                              ; preds = %92
  %124 = load i32, i32* %9, align 4
  %125 = load i32, i32* %12, align 4
  %126 = sub nsw i32 %124, %125
  %127 = sub nsw i32 %126, 1
  store i32 %127, i32* %14, align 4
  br label %128

128:                                              ; preds = %153, %123
  %129 = load i32, i32* %14, align 4
  %130 = load i32, i32* %12, align 4
  %131 = icmp sgt i32 %129, %130
  br i1 %131, label %132, label %156

132:                                              ; preds = %128
  %133 = load i32, i32* %15, align 4
  %134 = load i32, i32* %8, align 4
  %135 = load i32, i32* %9, align 4
  %136 = mul nsw i32 %134, %135
  %137 = icmp ne i32 %133, %136
  br i1 %137, label %138, label %152

138:                                              ; preds = %132
  %139 = load i32, i32* %8, align 4
  %140 = load i32, i32* %12, align 4
  %141 = sub nsw i32 %139, %140
  %142 = sub nsw i32 %141, 1
  %143 = sext i32 %142 to i64
  %144 = getelementptr inbounds [100 x [100 x i32]], [100 x [100 x i32]]* %6, i64 0, i64 %143
  %145 = load i32, i32* %14, align 4
  %146 = sext i32 %145 to i64
  %147 = getelementptr inbounds [100 x i32], [100 x i32]* %144, i64 0, i64 %146
  %148 = load i32, i32* %147, align 4
  %149 = call i32 (i8*, ...) @printf(i8* getelementptr inbounds ([4 x i8], [4 x i8]* @.str.1, i64 0, i64 0), i32 %148)
  %150 = load i32, i32* %15, align 4
  %151 = add nsw i32 %150, 1
  store i32 %151, i32* %15, align 4
  br label %152

152:                                              ; preds = %138, %132
  br label %153

153:                                              ; preds = %152
  %154 = load i32, i32* %14, align 4
  %155 = add nsw i32 %154, -1
  store i32 %155, i32* %14, align 4
  br label %128

156:                                              ; preds = %128
  %157 = load i32, i32* %8, align 4
  %158 = sub nsw i32 %157, 1
  %159 = load i32, i32* %12, align 4
  %160 = sub nsw i32 %158, %159
  store i32 %160, i32* %13, align 4
  br label %161

161:                                              ; preds = %183, %156
  %162 = load i32, i32* %13, align 4
  %163 = load i32, i32* %12, align 4
  %164 = icmp sgt i32 %162, %163
  br i1 %164, label %165, label %186

165:                                              ; preds = %161
  %166 = load i32, i32* %15, align 4
  %167 = load i32, i32* %8, align 4
  %168 = load i32, i32* %9, align 4
  %169 = mul nsw i32 %167, %168
  %170 = icmp ne i32 %166, %169
  br i1 %170, label %171, label %182

171:                                              ; preds = %165
  %172 = load i32, i32* %13, align 4
  %173 = sext i32 %172 to i64
  %174 = getelementptr inbounds [100 x [100 x i32]], [100 x [100 x i32]]* %6, i64 0, i64 %173
  %175 = load i32, i32* %12, align 4
  %176 = sext i32 %175 to i64
  %177 = getelementptr inbounds [100 x i32], [100 x i32]* %174, i64 0, i64 %176
  %178 = load i32, i32* %177, align 4
  %179 = call i32 (i8*, ...) @printf(i8* getelementptr inbounds ([4 x i8], [4 x i8]* @.str.1, i64 0, i64 0), i32 %178)
  %180 = load i32, i32* %15, align 4
  %181 = add nsw i32 %180, 1
  store i32 %181, i32* %15, align 4
  br label %182

182:                                              ; preds = %171, %165
  br label %183

183:                                              ; preds = %182
  %184 = load i32, i32* %13, align 4
  %185 = add nsw i32 %184, -1
  store i32 %185, i32* %13, align 4
  br label %161

186:                                              ; preds = %161
  %187 = load i32, i32* %12, align 4
  %188 = add nsw i32 %187, 1
  store i32 %188, i32* %12, align 4
  br label %54

189:                                              ; preds = %54
  ret i32 0
}

declare dso_local i32 @__isoc99_scanf(i8*, ...) #1

declare dso_local i32 @printf(i8*, ...) #1


!llvm.module.flags = !{!0}
!llvm.ident = !{!1}

!0 = !{i32 1, !"wchar_size", i32 4}
!1 = !{!"clang version 10.0.0-4ubuntu1 "}
